; Function Attrs: mustprogress uwtable
define hidden void @_ZN6Assimp15BlenderImporterC2Ev(ptr noundef nonnull align 8 dereferenceable(80) %this) unnamed_addr #1 align 2 personality ptr @__gxx_personality_v0 {
entry:
  tail call void @_ZN6Assimp12BaseImporterC2Ev(ptr noundef nonnull align 8 dereferenceable(72) %this) #20
  store ptr getelementptr inbounds ({ [8 x ptr] }, ptr @_ZTVN6Assimp15BlenderImporterE, i64 0, i32 0, i64 2), ptr %this, align 8
  %call = invoke noalias noundef nonnull dereferenceable(24) ptr @_Znwm(i64 noundef 24) #21
          to label %invoke.cont unwind label %lpad

invoke.cont:                                      ; preds = %entry
  %modifier_cache = getelementptr inbounds i8, ptr %this, i64 72
  tail call void @llvm.memset.p0.i64(ptr noundef nonnull align 8 dereferenceable(24) %call, i8 0, i64 24, i1 false)
  store ptr %call, ptr %modifier_cache, align 8
  ret void

lpad:                                             ; preds = %entry
  %0 = landingpad { ptr, i32 }
          cleanup
  tail call void @_ZN6Assimp12BaseImporterD2Ev(ptr noundef nonnull align 8 dereferenceable(72) %this) #20
  resume { ptr, i32 } %0
}